target datalayout = "e-m:e-p270:32:32-p271:32:32-p272:64:64-i64:64-i128:128-f80:128-n8:16:32:64-S128"
target triple = "x86_64-pc-linux-gnu"

%struct.Nwk_Obj_t_ = type { ptr, ptr, ptr, %union.anon, i32, i32, i32, i32, float, float, float, i32, i32, i32, ptr }
%union.anon = type { ptr }

; Function Attrs: inlinehint nounwind uwtable
define internal i32 @Nwk_ObjFaninNum(ptr noundef %0) #4 {
  %2 = alloca ptr, align 8
  store ptr %0, ptr %2, align 8, !tbaa !86
  %3 = load ptr, ptr %2, align 8, !tbaa !86
  %4 = getelementptr inbounds nuw %struct.Nwk_Obj_t_, ptr %3, i32 0, i32 11
  %5 = load i32, ptr %4, align 4, !tbaa !88
  ret i32 %5
}

; Function Attrs: nounwind uwtable
define i32 @Nwk_ManCountTotalFanins(ptr noundef %0, ptr noundef %1) #0 {
  %3 = alloca ptr, align 8
  %4 = alloca ptr, align 8
  %5 = alloca ptr, align 8
  %6 = alloca i32, align 4
  %7 = alloca i32, align 4
  store ptr %0, ptr %3, align 8, !tbaa !86
  store ptr %1, ptr %4, align 8, !tbaa !86
  call void @llvm.lifetime.start.p0(i64 8, ptr %5) #11
  call void @llvm.lifetime.start.p0(i64 4, ptr %6) #11
  call void @llvm.lifetime.start.p0(i64 4, ptr %7) #11
  %8 = load ptr, ptr %3, align 8, !tbaa !86
  %9 = call i32 @Nwk_ObjFaninNum(ptr noundef %8)
  store i32 %9, ptr %7, align 4, !tbaa !3
  store i32 0, ptr %6, align 4, !tbaa !3
  br label %10

10:                                               ; preds = %38, %2
  %11 = load i32, ptr %6, align 4, !tbaa !3
  %12 = load ptr, ptr %4, align 8, !tbaa !86
  %13 = getelementptr inbounds nuw %struct.Nwk_Obj_t_, ptr %12, i32 0, i32 11
  %14 = load i32, ptr %13, align 4, !tbaa !88
  %15 = icmp slt i32 %11, %14
  br i1 %15, label %16, label %25

16:                                               ; preds = %10
  %17 = load ptr, ptr %4, align 8, !tbaa !86
  %18 = getelementptr inbounds nuw %struct.Nwk_Obj_t_, ptr %17, i32 0, i32 14
  %19 = load ptr, ptr %18, align 8, !tbaa !94
  %20 = load i32, ptr %6, align 4, !tbaa !3
  %21 = sext i32 %20 to i64
  %22 = getelementptr inbounds ptr, ptr %19, i64 %21
  %23 = load ptr, ptr %22, align 8, !tbaa !86
  store ptr %23, ptr %5, align 8, !tbaa !86
  %24 = icmp ne ptr %23, null
  br label %25

25:                                               ; preds = %16, %10
  %26 = phi i1 [ false, %10 ], [ %24, %16 ]
  br i1 %26, label %27, label %41

27:                                               ; preds = %25
  %28 = load ptr, ptr %5, align 8, !tbaa !86
  %29 = getelementptr inbounds nuw %struct.Nwk_Obj_t_, ptr %28, i32 0, i32 4
  %30 = load i32, ptr %29, align 8
  %31 = lshr i32 %30, 6
  %32 = and i32 %31, 1
  %33 = icmp ne i32 %32, 0
  %34 = xor i1 %33, true
  %35 = zext i1 %34 to i32
  %36 = load i32, ptr %7, align 4, !tbaa !3
  %37 = add nsw i32 %36, %35
  store i32 %37, ptr %7, align 4, !tbaa !3
  br label %38

38:                                               ; preds = %27
  %39 = load i32, ptr %6, align 4, !tbaa !3
  %40 = add nsw i32 %39, 1
  store i32 %40, ptr %6, align 4, !tbaa !3
  br label %10, !llvm.loop !127

41:                                               ; preds = %25
  %42 = load i32, ptr %7, align 4, !tbaa !3
  call void @llvm.lifetime.end.p0(i64 4, ptr %7) #11
  call void @llvm.lifetime.end.p0(i64 4, ptr %6) #11
  call void @llvm.lifetime.end.p0(i64 8, ptr %5) #11
  ret i32 %42
}