; Function Attrs: nofree norecurse nosync nounwind memory(read, inaccessiblemem: none) uwtable
define i32 @Nwk_ManCountTotalFanins(ptr noundef readonly captures(none) %0, ptr noundef readonly captures(none) %1) local_unnamed_addr #11 {
  %3 = getelementptr i8, ptr %0, i64 60
  %.val = load i32, ptr %3, align 4, !tbaa !98
  %4 = getelementptr inbounds nuw i8, ptr %1, i64 60
  %5 = load i32, ptr %4, align 4, !tbaa !98
  %6 = icmp sgt i32 %5, 0
  br i1 %6, label %.lr.ph, label %.critedge

.lr.ph:                                           ; preds = %2
  %7 = getelementptr inbounds nuw i8, ptr %1, i64 72
  %8 = load ptr, ptr %7, align 8, !tbaa !99
  %wide.trip.count = zext nneg i32 %5 to i64
  br label %9

9:                                                ; preds = %.lr.ph, %12
  %indvars.iv = phi i64 [ 0, %.lr.ph ], [ %indvars.iv.next, %12 ]
  %.012 = phi i32 [ %.val, %.lr.ph ], [ %17, %12 ]
  %10 = getelementptr inbounds nuw ptr, ptr %8, i64 %indvars.iv
  %11 = load ptr, ptr %10, align 8, !tbaa !100
  %.not = icmp eq ptr %11, null
  br i1 %.not, label %.critedge, label %12

12:                                               ; preds = %9
  %13 = getelementptr inbounds nuw i8, ptr %11, i64 32
  %14 = load i32, ptr %13, align 8
  %15 = lshr i32 %14, 6
  %.lobit = and i32 %15, 1
  %16 = xor i32 %.lobit, 1
  %17 = add nsw i32 %16, %.012
  %indvars.iv.next = add nuw nsw i64 %indvars.iv, 1
  %exitcond.not = icmp eq i64 %indvars.iv.next, %wide.trip.count
  br i1 %exitcond.not, label %.critedge, label %9, !llvm.loop !122

.critedge:                                        ; preds = %9, %12, %2
  %.0.lcssa = phi i32 [ %.val, %2 ], [ %17, %12 ], [ %.012, %9 ]
  ret i32 %.0.lcssa
}